; Function Attrs: mustprogress nofree norecurse nounwind null_pointer_is_valid sspstrong willreturn memory(readwrite, inaccessiblemem: none) uwtable
define void @_ZN19EnabledProtocolItemC2E7QStringS0_bPS_(ptr noundef writeonly align 8 captures(none) dereferenceable_or_null(96) initializes((0, 90), (92, 96)) %0, ptr noundef readonly captures(none) %1, ptr noundef readonly captures(none) %2, i1 noundef zeroext %3, ptr noundef %4) unnamed_addr #0 align 2 personality ptr @__gxx_personality_v0 {
  %6 = getelementptr inbounds nuw i8, ptr %0, i64 8
  store ptr %4, ptr %6, align 8
  %7 = getelementptr inbounds nuw i8, ptr %0, i64 16
  tail call void @llvm.memset.p0.i64(ptr noundef nonnull align 8 dereferenceable(24) dereferenceable_or_null(24) %7, i8 0, i64 24, i1 false)
  store ptr getelementptr inbounds nuw inrange(-16, 24) (i8, ptr @_ZTV19EnabledProtocolItem, i64 16), ptr %0, align 8
  %8 = getelementptr inbounds nuw i8, ptr %0, i64 40
  %9 = load ptr, ptr %1, align 8
  store ptr %9, ptr %8, align 8
  %10 = getelementptr inbounds nuw i8, ptr %0, i64 48
  %11 = getelementptr inbounds nuw i8, ptr %1, i64 8
  %12 = load ptr, ptr %11, align 8
  store ptr %12, ptr %10, align 8
  %13 = getelementptr inbounds nuw i8, ptr %0, i64 56
  %14 = getelementptr inbounds nuw i8, ptr %1, i64 16
  %15 = load i64, ptr %14, align 8
  store i64 %15, ptr %13, align 8
  %.not.i.i.i = icmp eq ptr %9, null
  br i1 %.not.i.i.i, label %_ZN7QStringC2ERKS_.exit, label %16

16:                                               ; preds = %5
  %17 = atomicrmw add ptr %9, i32 1 seq_cst, align 4
  br label %_ZN7QStringC2ERKS_.exit

_ZN7QStringC2ERKS_.exit:                          ; preds = %5, %16
  %18 = getelementptr inbounds nuw i8, ptr %0, i64 64
  %19 = load ptr, ptr %2, align 8
  store ptr %19, ptr %18, align 8
  %20 = getelementptr inbounds nuw i8, ptr %0, i64 72
  %21 = getelementptr inbounds nuw i8, ptr %2, i64 8
  %22 = load ptr, ptr %21, align 8
  store ptr %22, ptr %20, align 8
  %23 = getelementptr inbounds nuw i8, ptr %0, i64 80
  %24 = getelementptr inbounds nuw i8, ptr %2, i64 16
  %25 = load i64, ptr %24, align 8
  store i64 %25, ptr %23, align 8
  %.not.i.i.i3 = icmp eq ptr %19, null
  br i1 %.not.i.i.i3, label %_ZN7QStringC2ERKS_.exit4, label %26

26:                                               ; preds = %_ZN7QStringC2ERKS_.exit
  %27 = atomicrmw add ptr %19, i32 1 seq_cst, align 4
  br label %_ZN7QStringC2ERKS_.exit4

_ZN7QStringC2ERKS_.exit4:                         ; preds = %_ZN7QStringC2ERKS_.exit, %26
  %28 = zext i1 %3 to i8
  %29 = getelementptr inbounds nuw i8, ptr %0, i64 88
  store i8 %28, ptr %29, align 8
  %30 = getelementptr inbounds nuw i8, ptr %0, i64 89
  store i8 %28, ptr %30, align 1
  %31 = getelementptr inbounds nuw i8, ptr %0, i64 92
  store i32 1, ptr %31, align 4
  ret void
}